; Function Attrs: nounwind uwtable
define hidden i32 @BIO_asn1_get_prefix(ptr noundef %0, ptr noundef writeonly captures(none) %1, ptr noundef writeonly captures(none) %2) local_unnamed_addr #1 {
  %4 = alloca %struct.BIO_ASN1_EX_FUNCS_st, align 8
  call void @llvm.lifetime.start.p0(i64 16, ptr nonnull %4) #11
  %5 = call i64 @BIO_ctrl(ptr noundef %0, i32 noundef 150, i64 noundef 0, ptr noundef nonnull %4) #11
  %6 = trunc i64 %5 to i32
  %7 = icmp sgt i32 %6, 0
  br i1 %7, label %8, label %asn1_bio_get_ex.exit

8:                                                ; preds = %3
  %9 = load ptr, ptr %4, align 8, !tbaa !6
  store ptr %9, ptr %1, align 8, !tbaa !12
  %10 = getelementptr inbounds nuw i8, ptr %4, i64 8
  %11 = load ptr, ptr %10, align 8, !tbaa !11
  store ptr %11, ptr %2, align 8, !tbaa !12
  br label %asn1_bio_get_ex.exit

asn1_bio_get_ex.exit:                             ; preds = %3, %8
  call void @llvm.lifetime.end.p0(i64 16, ptr nonnull %4) #11
  ret i32 %6
}